target datalayout = "e-m:e-p270:32:32-p271:32:32-p272:64:64-i64:64-i128:128-f80:128-n8:16:32:64-S128"
target triple = "x86_64-pc-linux-gnu"

%class.Register = type { i32 }
%class.XMMRegister = type { i32 }

@_ZN19Abstract_VM_Version9_featuresE = external global i64, align 8
@_type2aelembytes = external global [20 x i32], align 16

; Function Attrs: mustprogress nounwind uwtable
define linkonce_odr hidden noundef zeroext i1 @_ZN10VM_Version17supports_avx512bwEv() #1 comdat align 2 {
  %1 = load i64, ptr @_ZN19Abstract_VM_Version9_featuresE, align 8
  %2 = and i64 %1, 4294967296
  %3 = icmp ne i64 %2, 0
  ret i1 %3
}

; Function Attrs: mustprogress nounwind uwtable
define linkonce_odr hidden noundef zeroext i1 @_ZN10VM_Version13supports_evexEv() #1 comdat align 2 {
  %1 = load i64, ptr @_ZN19Abstract_VM_Version9_featuresE, align 8
  %2 = and i64 %1, 134217728
  %3 = icmp ne i64 %2, 0
  ret i1 %3
}

; Function Attrs: mustprogress nounwind uwtable
define linkonce_odr hidden noundef zeroext i1 @_ZN10VM_Version19supports_avx512vlbwEv() #1 comdat align 2 {
  %1 = call noundef zeroext i1 @_ZN10VM_Version13supports_evexEv()
  br i1 %1, label %2, label %6

2:                                                ; preds = %0
  %3 = call noundef zeroext i1 @_ZN10VM_Version17supports_avx512bwEv()
  br i1 %3, label %4, label %6

4:                                                ; preds = %2
  %5 = call noundef zeroext i1 @_ZN10VM_Version17supports_avx512vlEv()
  br label %6

6:                                                ; preds = %4, %2, %0
  %7 = phi i1 [ false, %2 ], [ false, %0 ], [ %5, %4 ]
  ret i1 %7
}

; Function Attrs: mustprogress nounwind uwtable
define linkonce_odr hidden noundef zeroext i1 @_Z15is_subword_type9BasicType(i8 noundef zeroext %0) #1 comdat {
  %2 = alloca i8, align 1
  store i8 %0, ptr %2, align 1
  %3 = load i8, ptr %2, align 1
  %4 = zext i8 %3 to i32
  %5 = icmp eq i32 %4, 4
  br i1 %5, label %18, label %6

6:                                                ; preds = %1
  %7 = load i8, ptr %2, align 1
  %8 = zext i8 %7 to i32
  %9 = icmp eq i32 %8, 5
  br i1 %9, label %18, label %10

10:                                               ; preds = %6
  %11 = load i8, ptr %2, align 1
  %12 = zext i8 %11 to i32
  %13 = icmp eq i32 %12, 8
  br i1 %13, label %18, label %14

14:                                               ; preds = %10
  %15 = load i8, ptr %2, align 1
  %16 = zext i8 %15 to i32
  %17 = icmp eq i32 %16, 9
  br label %18

18:                                               ; preds = %14, %10, %6, %1
  %19 = phi i1 [ true, %10 ], [ true, %6 ], [ true, %1 ], [ %17, %14 ]
  ret i1 %19
}

; Function Attrs: mustprogress nounwind uwtable
define linkonce_odr hidden noundef zeroext i1 @_ZN10VM_Version17supports_avx512vlEv() #1 comdat align 2 {
  %1 = load i64, ptr @_ZN19Abstract_VM_Version9_featuresE, align 8
  %2 = and i64 %1, 8589934592
  %3 = icmp ne i64 %2, 0
  ret i1 %3
}

; Function Attrs: mustprogress nounwind uwtable
define linkonce_odr hidden noundef zeroext i1 @_Z28is_non_subword_integral_type9BasicType(i8 noundef zeroext %0) #1 comdat {
  %2 = alloca i8, align 1
  store i8 %0, ptr %2, align 1
  %3 = load i8, ptr %2, align 1
  %4 = zext i8 %3 to i32
  %5 = icmp eq i32 %4, 10
  br i1 %5, label %10, label %6

6:                                                ; preds = %1
  %7 = load i8, ptr %2, align 1
  %8 = zext i8 %7 to i32
  %9 = icmp eq i32 %8, 11
  br label %10

10:                                               ; preds = %6, %1
  %11 = phi i1 [ true, %1 ], [ %9, %6 ]
  ret i1 %11
}

; Function Attrs: mustprogress nounwind uwtable
define linkonce_odr hidden noundef i32 @_Z15type2aelembytes9BasicTypeb(i8 noundef zeroext %0, i1 noundef zeroext %1) #1 comdat {
  %3 = alloca i8, align 1
  %4 = alloca i8, align 1
  store i8 %0, ptr %3, align 1
  %5 = zext i1 %1 to i8
  store i8 %5, ptr %4, align 1
  %6 = load i8, ptr %3, align 1
  %7 = zext i8 %6 to i64
  %8 = getelementptr inbounds [20 x i32], ptr @_type2aelembytes, i64 0, i64 %7
  %9 = load i32, ptr %8, align 4
  ret i32 %9
}

; Function Attrs: mustprogress nounwind uwtable
define hidden void @_ZN17C2_MacroAssembler10vbroadcastE9BasicType11XMMRegisteri8Registeri(ptr noundef nonnull align 8 dereferenceable(40) %0, i8 noundef zeroext %1, i32 %2, i32 noundef %3, i32 %4, i32 noundef %5) #1 align 2 {
  %7 = alloca %class.XMMRegister, align 4
  %8 = alloca %class.Register, align 4
  %9 = alloca ptr, align 8
  %10 = alloca i8, align 1
  %11 = alloca i32, align 4
  %12 = alloca i32, align 4
  %13 = alloca i32, align 4
  %14 = alloca i8, align 1
  %15 = alloca %class.Register, align 4
  %16 = alloca %class.XMMRegister, align 4
  %17 = alloca %class.Register, align 4
  %18 = alloca %class.XMMRegister, align 4
  %19 = alloca %class.Register, align 4
  %20 = alloca %class.XMMRegister, align 4
  %21 = alloca %class.Register, align 4
  %22 = alloca %class.XMMRegister, align 4
  %23 = alloca %class.Register, align 4
  %24 = alloca %class.Register, align 4
  %25 = alloca %class.XMMRegister, align 4
  %26 = alloca %class.Register, align 4
  %27 = alloca %class.XMMRegister, align 4
  %28 = alloca %class.XMMRegister, align 4
  %29 = alloca %class.XMMRegister, align 4
  %30 = alloca %class.XMMRegister, align 4
  %31 = alloca %class.XMMRegister, align 4
  %32 = alloca %class.XMMRegister, align 4
  %33 = alloca %class.XMMRegister, align 4
  %34 = alloca %class.XMMRegister, align 4
  %35 = getelementptr inbounds %class.XMMRegister, ptr %7, i32 0, i32 0
  store i32 %2, ptr %35, align 4
  %36 = getelementptr inbounds %class.Register, ptr %8, i32 0, i32 0
  store i32 %4, ptr %36, align 4
  store ptr %0, ptr %9, align 8
  store i8 %1, ptr %10, align 1
  store i32 %3, ptr %11, align 4
  store i32 %5, ptr %12, align 4
  %37 = load ptr, ptr %9, align 8
  %38 = load i8, ptr %10, align 1
  %39 = call noundef i32 @_Z15type2aelembytes9BasicTypeb(i8 noundef zeroext %38, i1 noundef zeroext false)
  store i32 %39, ptr %13, align 4
  store i8 1, ptr %14, align 1
  %40 = load i8, ptr %14, align 1
  %41 = trunc i8 %40 to i1
  br i1 %41, label %45, label %42

42:                                               ; preds = %6
  %43 = load i32, ptr %13, align 4
  %44 = icmp slt i32 %43, 8
  br i1 %44, label %45, label %86

45:                                               ; preds = %42, %6
  %46 = load i8, ptr %10, align 1
  %47 = call noundef zeroext i1 @_Z28is_non_subword_integral_type9BasicType(i8 noundef zeroext %46)
  br i1 %47, label %48, label %50

48:                                               ; preds = %45
  %49 = call noundef zeroext i1 @_ZN10VM_Version17supports_avx512vlEv()
  br i1 %49, label %55, label %50

50:                                               ; preds = %48, %45
  %51 = load i8, ptr %10, align 1
  %52 = call noundef zeroext i1 @_Z15is_subword_type9BasicType(i8 noundef zeroext %51)
  br i1 %52, label %53, label %86

53:                                               ; preds = %50
  %54 = call noundef zeroext i1 @_ZN10VM_Version19supports_avx512vlbwEv()
  br i1 %54, label %55, label %86

55:                                               ; preds = %53, %48
  call void @llvm.memcpy.p0.p0.i64(ptr align 4 %15, ptr align 4 %8, i64 4, i1 false)
  %56 = load i32, ptr %11, align 4
  %57 = sext i32 %56 to i64
  %58 = getelementptr inbounds %class.Register, ptr %15, i32 0, i32 0
  %59 = load i32, ptr %58, align 4
  call void @_ZN14MacroAssembler6movptrE8Registerl(ptr noundef nonnull align 8 dereferenceable(40) %37, i32 %59, i64 noundef %57)
  %60 = load i32, ptr %13, align 4
  switch i32 %60, label %85 [
    i32 1, label %61
    i32 2, label %67
    i32 4, label %73
    i32 8, label %79
  ]

61:                                               ; preds = %55
  call void @llvm.memcpy.p0.p0.i64(ptr align 4 %16, ptr align 4 %7, i64 4, i1 false)
  call void @llvm.memcpy.p0.p0.i64(ptr align 4 %17, ptr align 4 %8, i64 4, i1 false)
  %62 = load i32, ptr %12, align 4
  %63 = getelementptr inbounds %class.XMMRegister, ptr %16, i32 0, i32 0
  %64 = load i32, ptr %63, align 4
  %65 = getelementptr inbounds %class.Register, ptr %17, i32 0, i32 0
  %66 = load i32, ptr %65, align 4
  call void @_ZN9Assembler13evpbroadcastbE11XMMRegister8Registeri(ptr noundef nonnull align 8 dereferenceable(40) %37, i32 %64, i32 %66, i32 noundef %62)
  br label %85

67:                                               ; preds = %55
  call void @llvm.memcpy.p0.p0.i64(ptr align 4 %18, ptr align 4 %7, i64 4, i1 false)
  call void @llvm.memcpy.p0.p0.i64(ptr align 4 %19, ptr align 4 %8, i64 4, i1 false)
  %68 = load i32, ptr %12, align 4
  %69 = getelementptr inbounds %class.XMMRegister, ptr %18, i32 0, i32 0
  %70 = load i32, ptr %69, align 4
  %71 = getelementptr inbounds %class.Register, ptr %19, i32 0, i32 0
  %72 = load i32, ptr %71, align 4
  call void @_ZN9Assembler13evpbroadcastwE11XMMRegister8Registeri(ptr noundef nonnull align 8 dereferenceable(40) %37, i32 %70, i32 %72, i32 noundef %68)
  br label %85

73:                                               ; preds = %55
  call void @llvm.memcpy.p0.p0.i64(ptr align 4 %20, ptr align 4 %7, i64 4, i1 false)
  call void @llvm.memcpy.p0.p0.i64(ptr align 4 %21, ptr align 4 %8, i64 4, i1 false)
  %74 = load i32, ptr %12, align 4
  %75 = getelementptr inbounds %class.XMMRegister, ptr %20, i32 0, i32 0
  %76 = load i32, ptr %75, align 4
  %77 = getelementptr inbounds %class.Register, ptr %21, i32 0, i32 0
  %78 = load i32, ptr %77, align 4
  call void @_ZN9Assembler13evpbroadcastdE11XMMRegister8Registeri(ptr noundef nonnull align 8 dereferenceable(40) %37, i32 %76, i32 %78, i32 noundef %74)
  br label %85

79:                                               ; preds = %55
  call void @llvm.memcpy.p0.p0.i64(ptr align 4 %22, ptr align 4 %7, i64 4, i1 false)
  call void @llvm.memcpy.p0.p0.i64(ptr align 4 %23, ptr align 4 %8, i64 4, i1 false)
  %80 = load i32, ptr %12, align 4
  %81 = getelementptr inbounds %class.XMMRegister, ptr %22, i32 0, i32 0
  %82 = load i32, ptr %81, align 4
  %83 = getelementptr inbounds %class.Register, ptr %23, i32 0, i32 0
  %84 = load i32, ptr %83, align 4
  call void @_ZN9Assembler13evpbroadcastqE11XMMRegister8Registeri(ptr noundef nonnull align 8 dereferenceable(40) %37, i32 %82, i32 %84, i32 noundef %80)
  br label %85

85:                                               ; preds = %79, %73, %67, %61, %55
  br label %121

86:                                               ; preds = %53, %50, %42
  call void @llvm.memcpy.p0.p0.i64(ptr align 4 %24, ptr align 4 %8, i64 4, i1 false)
  %87 = load i32, ptr %11, align 4
  %88 = sext i32 %87 to i64
  %89 = getelementptr inbounds %class.Register, ptr %24, i32 0, i32 0
  %90 = load i32, ptr %89, align 4
  call void @_ZN14MacroAssembler6movptrE8Registerl(ptr noundef nonnull align 8 dereferenceable(40) %37, i32 %90, i64 noundef %88)
  call void @llvm.memcpy.p0.p0.i64(ptr align 4 %25, ptr align 4 %7, i64 4, i1 false)
  call void @llvm.memcpy.p0.p0.i64(ptr align 4 %26, ptr align 4 %8, i64 4, i1 false)
  %91 = getelementptr inbounds %class.XMMRegister, ptr %25, i32 0, i32 0
  %92 = load i32, ptr %91, align 4
  %93 = getelementptr inbounds %class.Register, ptr %26, i32 0, i32 0
  %94 = load i32, ptr %93, align 4
  call void @_ZN9Assembler4movqE11XMMRegister8Register(ptr noundef nonnull align 8 dereferenceable(40) %37, i32 %92, i32 %94)
  %95 = load i32, ptr %13, align 4
  switch i32 %95, label %120 [
    i32 1, label %96
    i32 2, label %102
    i32 4, label %108
    i32 8, label %114
  ]

96:                                               ; preds = %86
  call void @llvm.memcpy.p0.p0.i64(ptr align 4 %27, ptr align 4 %7, i64 4, i1 false)
  call void @llvm.memcpy.p0.p0.i64(ptr align 4 %28, ptr align 4 %7, i64 4, i1 false)
  %97 = load i32, ptr %12, align 4
  %98 = getelementptr inbounds %class.XMMRegister, ptr %27, i32 0, i32 0
  %99 = load i32, ptr %98, align 4
  %100 = getelementptr inbounds %class.XMMRegister, ptr %28, i32 0, i32 0
  %101 = load i32, ptr %100, align 4
  call void @_ZN9Assembler12vpbroadcastbE11XMMRegisterS0_i(ptr noundef nonnull align 8 dereferenceable(40) %37, i32 %99, i32 %101, i32 noundef %97)
  br label %120

102:                                              ; preds = %86
  call void @llvm.memcpy.p0.p0.i64(ptr align 4 %29, ptr align 4 %7, i64 4, i1 false)
  call void @llvm.memcpy.p0.p0.i64(ptr align 4 %30, ptr align 4 %7, i64 4, i1 false)
  %103 = load i32, ptr %12, align 4
  %104 = getelementptr inbounds %class.XMMRegister, ptr %29, i32 0, i32 0
  %105 = load i32, ptr %104, align 4
  %106 = getelementptr inbounds %class.XMMRegister, ptr %30, i32 0, i32 0
  %107 = load i32, ptr %106, align 4
  call void @_ZN9Assembler12vpbroadcastwE11XMMRegisterS0_i(ptr noundef nonnull align 8 dereferenceable(40) %37, i32 %105, i32 %107, i32 noundef %103)
  br label %120

108:                                              ; preds = %86
  call void @llvm.memcpy.p0.p0.i64(ptr align 4 %31, ptr align 4 %7, i64 4, i1 false)
  call void @llvm.memcpy.p0.p0.i64(ptr align 4 %32, ptr align 4 %7, i64 4, i1 false)
  %109 = load i32, ptr %12, align 4
  %110 = getelementptr inbounds %class.XMMRegister, ptr %31, i32 0, i32 0
  %111 = load i32, ptr %110, align 4
  %112 = getelementptr inbounds %class.XMMRegister, ptr %32, i32 0, i32 0
  %113 = load i32, ptr %112, align 4
  call void @_ZN9Assembler12vpbroadcastdE11XMMRegisterS0_i(ptr noundef nonnull align 8 dereferenceable(40) %37, i32 %111, i32 %113, i32 noundef %109)
  br label %120

114:                                              ; preds = %86
  call void @llvm.memcpy.p0.p0.i64(ptr align 4 %33, ptr align 4 %7, i64 4, i1 false)
  call void @llvm.memcpy.p0.p0.i64(ptr align 4 %34, ptr align 4 %7, i64 4, i1 false)
  %115 = load i32, ptr %12, align 4
  %116 = getelementptr inbounds %class.XMMRegister, ptr %33, i32 0, i32 0
  %117 = load i32, ptr %116, align 4
  %118 = getelementptr inbounds %class.XMMRegister, ptr %34, i32 0, i32 0
  %119 = load i32, ptr %118, align 4
  call void @_ZN9Assembler12vpbroadcastqE11XMMRegisterS0_i(ptr noundef nonnull align 8 dereferenceable(40) %37, i32 %117, i32 %119, i32 noundef %115)
  br label %120

120:                                              ; preds = %114, %108, %102, %96, %86
  br label %121

121:                                              ; preds = %120, %85
  ret void
}