; Function Attrs: mustprogress nounwind uwtable
define hidden void @_ZN17C2_MacroAssembler10vbroadcastE9BasicType11XMMRegisteri8Registeri(ptr noundef nonnull align 8 dereferenceable(40) %0, i8 noundef zeroext %1, i32 %2, i32 noundef %3, i32 %4, i32 noundef %5) local_unnamed_addr #0 align 2 {
  %7 = zext i8 %1 to i64
  %8 = getelementptr inbounds [20 x i32], ptr @_type2aelembytes, i64 0, i64 %7
  %9 = load i32, ptr %8, align 4
  %10 = and i8 %1, -2
  %11 = icmp eq i8 %10, 10
  br i1 %11, label %12, label %15

12:                                               ; preds = %6
  %13 = load i64, ptr @_ZN19Abstract_VM_Version9_featuresE, align 8
  %14 = and i64 %13, 8589934592
  %.not = icmp eq i64 %14, 0
  br i1 %.not, label %15, label %21

15:                                               ; preds = %12, %6
  %16 = add i8 %1, -4
  %switch.and.i = and i8 %16, -6
  %switch.selectcmp.i = icmp eq i8 %switch.and.i, 0
  br i1 %switch.selectcmp.i, label %17, label %27

17:                                               ; preds = %15
  %18 = load i64, ptr @_ZN19Abstract_VM_Version9_featuresE, align 8
  %19 = and i64 %18, 13019119616
  %20 = icmp eq i64 %19, 13019119616
  br i1 %20, label %21, label %27

21:                                               ; preds = %17, %12
  %22 = sext i32 %3 to i64
  tail call void @_ZN14MacroAssembler6movptrE8Registerl(ptr noundef nonnull align 8 dereferenceable(40) %0, i32 %4, i64 noundef %22) #11
  switch i32 %9, label %33 [
    i32 1, label %23
    i32 2, label %24
    i32 4, label %25
    i32 8, label %26
  ]

23:                                               ; preds = %21
  tail call void @_ZN9Assembler13evpbroadcastbE11XMMRegister8Registeri(ptr noundef nonnull align 8 dereferenceable(40) %0, i32 %2, i32 %4, i32 noundef %5) #11
  br label %33

24:                                               ; preds = %21
  tail call void @_ZN9Assembler13evpbroadcastwE11XMMRegister8Registeri(ptr noundef nonnull align 8 dereferenceable(40) %0, i32 %2, i32 %4, i32 noundef %5) #11
  br label %33

25:                                               ; preds = %21
  tail call void @_ZN9Assembler13evpbroadcastdE11XMMRegister8Registeri(ptr noundef nonnull align 8 dereferenceable(40) %0, i32 %2, i32 %4, i32 noundef %5) #11
  br label %33

26:                                               ; preds = %21
  tail call void @_ZN9Assembler13evpbroadcastqE11XMMRegister8Registeri(ptr noundef nonnull align 8 dereferenceable(40) %0, i32 %2, i32 %4, i32 noundef %5) #11
  br label %33

27:                                               ; preds = %17, %15
  %28 = sext i32 %3 to i64
  tail call void @_ZN14MacroAssembler6movptrE8Registerl(ptr noundef nonnull align 8 dereferenceable(40) %0, i32 %4, i64 noundef %28) #11
  tail call void @_ZN9Assembler4movqE11XMMRegister8Register(ptr noundef nonnull align 8 dereferenceable(40) %0, i32 %2, i32 %4) #11
  switch i32 %9, label %33 [
    i32 1, label %29
    i32 2, label %30
    i32 4, label %31
    i32 8, label %32
  ]

29:                                               ; preds = %27
  tail call void @_ZN9Assembler12vpbroadcastbE11XMMRegisterS0_i(ptr noundef nonnull align 8 dereferenceable(40) %0, i32 %2, i32 %2, i32 noundef %5) #11
  br label %33

30:                                               ; preds = %27
  tail call void @_ZN9Assembler12vpbroadcastwE11XMMRegisterS0_i(ptr noundef nonnull align 8 dereferenceable(40) %0, i32 %2, i32 %2, i32 noundef %5) #11
  br label %33

31:                                               ; preds = %27
  tail call void @_ZN9Assembler12vpbroadcastdE11XMMRegisterS0_i(ptr noundef nonnull align 8 dereferenceable(40) %0, i32 %2, i32 %2, i32 noundef %5) #11
  br label %33

32:                                               ; preds = %27
  tail call void @_ZN9Assembler12vpbroadcastqE11XMMRegisterS0_i(ptr noundef nonnull align 8 dereferenceable(40) %0, i32 %2, i32 %2, i32 noundef %5) #11
  br label %33

33:                                               ; preds = %27, %29, %30, %31, %32, %21, %23, %24, %25, %26
  ret void
}